; Function Attrs: nounwind uwtable
define internal ptr @evthread_posix_cond_alloc(i32 %0) #0 {
  %2 = tail call ptr @event_mm_malloc_(i64 noundef 48) #8
  %.not = icmp eq ptr %2, null
  br i1 %.not, label %6, label %3

3:                                                ; preds = %1
  %4 = tail call i32 @pthread_cond_init(ptr noundef nonnull %2, ptr noundef null) #8
  %.not6 = icmp eq i32 %4, 0
  br i1 %.not6, label %6, label %5

5:                                                ; preds = %3
  tail call void @event_mm_free_(ptr noundef nonnull %2) #8
  br label %6

6:                                                ; preds = %3, %1, %5
  %.0 = phi ptr [ null, %5 ], [ null, %1 ], [ %2, %3 ]
  ret ptr %.0
}